; Function Attrs: mustprogress uwtable
define internal fastcc noundef zeroext i1 @_ZL31cmFortranStreamContainsSequenceRSiPKci(ptr noundef nonnull align 8 dereferenceable(16) %0, ptr nocapture noundef readonly %1, i32 noundef %2) unnamed_addr #3 {
  %4 = icmp slt i32 %2, 1
  br i1 %4, label %._crit_edge, label %.lr.ph

.lr.ph:                                           ; preds = %3, %11
  %.089 = phi i32 [ %.1, %11 ], [ 0, %3 ]
  %5 = tail call noundef i32 @_ZNSi3getEv(ptr noundef nonnull align 8 dereferenceable(16) %0)
  %6 = load ptr, ptr %0, align 8
  %7 = getelementptr i8, ptr %6, i64 -24
  %8 = load i64, ptr %7, align 8
  %9 = getelementptr inbounds i8, ptr %0, i64 %8
  %10 = tail call noundef zeroext i1 @_ZNKSt9basic_iosIcSt11char_traitsIcEEntEv(ptr noundef nonnull align 8 dereferenceable(264) %9)
  br i1 %10, label %._crit_edge.loopexit, label %11

11:                                               ; preds = %.lr.ph
  %12 = sext i32 %.089 to i64
  %13 = getelementptr inbounds i8, ptr %1, i64 %12
  %14 = load i8, ptr %13, align 1
  %15 = sext i8 %14 to i32
  %16 = icmp eq i32 %5, %15
  %17 = add nsw i32 %.089, 1
  %.1 = select i1 %16, i32 %17, i32 0
  %.not = icmp slt i32 %.1, %2
  br i1 %.not, label %.lr.ph, label %._crit_edge.loopexit, !llvm.loop !154

._crit_edge.loopexit:                             ; preds = %11, %.lr.ph
  %.lcssa.ph = xor i1 %10, true
  br label %._crit_edge

._crit_edge:                                      ; preds = %._crit_edge.loopexit, %3
  %.lcssa = phi i1 [ true, %3 ], [ %.lcssa.ph, %._crit_edge.loopexit ]
  ret i1 %.lcssa
}